(dp0
S'blue'
p1
I3
sS'brown'
p2
I5
sS'gray'
p3
I4
sS'purple'
p4
I1
sS'aqua'
p5
I6
sS'pink'
p6
I8
sS'black'
p7
I7
sS'orange'
p8
I10
sS'green'
p9
I11
sS'blonde'
p10
I0
sS'white'
p11
I9
sS'red'
p12
I2
s.